target datalayout = "e-m:e-p270:32:32-p271:32:32-p272:64:64-i64:64-i128:128-f80:128-n8:16:32:64-S128"
target triple = "x86_64-pc-linux-gnu"

%"class.llvm::Bitset" = type { %"struct.std::array" }
%"struct.std::array" = type { [2 x i64] }
%"struct.llvm::AArch64::ExtensionDependency" = type { i32, i32 }
%"struct.llvm::AArch64::ExtensionSet" = type { %"class.llvm::Bitset", %"class.llvm::Bitset", ptr }

; Function Attrs: mustprogress nounwind uwtable
define linkonce_odr hidden noundef nonnull align 8 dereferenceable(8) ptr @_ZNSt14__array_traitsImLm2EE6_S_refERA2_Kmm(ptr noundef nonnull align 8 dereferenceable(16) %0, i64 noundef %1) #0 comdat align 2 {
  %3 = alloca ptr, align 8
  %4 = alloca i64, align 8
  store ptr %0, ptr %3, align 8
  store i64 %1, ptr %4, align 8
  %5 = load ptr, ptr %3, align 8
  %6 = load i64, ptr %4, align 8
  %7 = getelementptr inbounds [2 x i64], ptr %5, i64 0, i64 %6
  ret ptr %7
}

; Function Attrs: mustprogress nounwind uwtable
define linkonce_odr hidden noundef nonnull align 8 dereferenceable(8) ptr @_ZNKSt5arrayImLm2EEixEm(ptr noundef nonnull align 8 dereferenceable(16) %0, i64 noundef %1) #0 comdat align 2 {
  %3 = alloca ptr, align 8
  %4 = alloca i64, align 8
  store ptr %0, ptr %3, align 8
  store i64 %1, ptr %4, align 8
  %5 = load ptr, ptr %3, align 8
  %6 = getelementptr inbounds nuw %"struct.std::array", ptr %5, i32 0, i32 0
  %7 = load i64, ptr %4, align 8
  %8 = call noundef nonnull align 8 dereferenceable(8) ptr @_ZNSt14__array_traitsImLm2EE6_S_refERA2_Kmm(ptr noundef nonnull align 8 dereferenceable(16) %6, i64 noundef %7) #1
  ret ptr %8
}

; Function Attrs: mustprogress nounwind uwtable
define linkonce_odr hidden noundef nonnull align 8 dereferenceable(8) ptr @_ZNSt5arrayImLm2EEixEm(ptr noundef nonnull align 8 dereferenceable(16) %0, i64 noundef %1) #0 comdat align 2 {
  %3 = alloca ptr, align 8
  %4 = alloca i64, align 8
  store ptr %0, ptr %3, align 8
  store i64 %1, ptr %4, align 8
  %5 = load ptr, ptr %3, align 8
  %6 = getelementptr inbounds nuw %"struct.std::array", ptr %5, i32 0, i32 0
  %7 = load i64, ptr %4, align 8
  %8 = call noundef nonnull align 8 dereferenceable(8) ptr @_ZNSt14__array_traitsImLm2EE6_S_refERA2_Kmm(ptr noundef nonnull align 8 dereferenceable(16) %6, i64 noundef %7) #1
  ret ptr %8
}

; Function Attrs: mustprogress nounwind uwtable
define linkonce_odr hidden noundef zeroext i1 @_ZNK4llvm6BitsetILj112EEixEj(ptr noundef nonnull align 8 dereferenceable(16) %0, i32 noundef %1) #0 comdat align 2 {
  %3 = alloca ptr, align 8
  %4 = alloca i32, align 4
  %5 = alloca i64, align 8
  store ptr %0, ptr %3, align 8
  store i32 %1, ptr %4, align 4
  %6 = load ptr, ptr %3, align 8
  %7 = load i32, ptr %4, align 4
  %8 = urem i32 %7, 64
  %9 = zext i32 %8 to i64
  %10 = shl i64 1, %9
  store i64 %10, ptr %5, align 8
  %11 = getelementptr inbounds nuw %"class.llvm::Bitset", ptr %6, i32 0, i32 0
  %12 = load i32, ptr %4, align 4
  %13 = udiv i32 %12, 64
  %14 = zext i32 %13 to i64
  %15 = call noundef nonnull align 8 dereferenceable(8) ptr @_ZNKSt5arrayImLm2EEixEm(ptr noundef nonnull align 8 dereferenceable(16) %11, i64 noundef %14) #1
  %16 = load i64, ptr %15, align 8
  %17 = load i64, ptr %5, align 8
  %18 = and i64 %16, %17
  %19 = icmp ne i64 %18, 0
  ret i1 %19
}

; Function Attrs: mustprogress nounwind uwtable
define linkonce_odr hidden noundef nonnull align 8 dereferenceable(16) ptr @_ZN4llvm6BitsetILj112EE3setEj(ptr noundef nonnull align 8 dereferenceable(16) %0, i32 noundef %1) #0 comdat align 2 {
  %3 = alloca ptr, align 8
  %4 = alloca i32, align 4
  store ptr %0, ptr %3, align 8
  store i32 %1, ptr %4, align 4
  %5 = load ptr, ptr %3, align 8
  %6 = load i32, ptr %4, align 4
  %7 = urem i32 %6, 64
  %8 = zext i32 %7 to i64
  %9 = shl i64 1, %8
  %10 = getelementptr inbounds nuw %"class.llvm::Bitset", ptr %5, i32 0, i32 0
  %11 = load i32, ptr %4, align 4
  %12 = udiv i32 %11, 64
  %13 = zext i32 %12 to i64
  %14 = call noundef nonnull align 8 dereferenceable(8) ptr @_ZNSt5arrayImLm2EEixEm(ptr noundef nonnull align 8 dereferenceable(16) %10, i64 noundef %13) #1
  %15 = load i64, ptr %14, align 8
  %16 = or i64 %15, %9
  store i64 %16, ptr %14, align 8
  ret ptr %5
}

; Function Attrs: mustprogress nounwind uwtable
define linkonce_odr hidden noundef zeroext i1 @_ZNK4llvm6BitsetILj112EE4testEj(ptr noundef nonnull align 8 dereferenceable(16) %0, i32 noundef %1) #0 comdat align 2 {
  %3 = alloca ptr, align 8
  %4 = alloca i32, align 4
  store ptr %0, ptr %3, align 8
  store i32 %1, ptr %4, align 4
  %5 = load ptr, ptr %3, align 8
  %6 = load i32, ptr %4, align 4
  %7 = call noundef zeroext i1 @_ZNK4llvm6BitsetILj112EEixEj(ptr noundef nonnull align 8 dereferenceable(16) %5, i32 noundef %6)
  ret i1 %7
}

; Function Attrs: mustprogress nounwind uwtable
define dso_local void @_ZN4llvm7AArch6412ExtensionSet6enableENS0_11ArchExtKindE(ptr noundef nonnull align 8 dereferenceable(40) %0, i32 noundef %1) #0 align 2 {
  %3 = alloca ptr, align 8
  %4 = alloca i32, align 4
  %5 = alloca ptr, align 8
  %6 = alloca ptr, align 8
  %7 = alloca ptr, align 8
  %8 = alloca %"struct.llvm::AArch64::ExtensionDependency", align 4
  store ptr %0, ptr %3, align 8
  store i32 %1, ptr %4, align 4
  %9 = load ptr, ptr %3, align 8
  %10 = getelementptr inbounds nuw %"struct.llvm::AArch64::ExtensionSet", ptr %9, i32 0, i32 0
  %11 = load i32, ptr %4, align 4
  %12 = call noundef zeroext i1 @_ZNK4llvm6BitsetILj112EE4testEj(ptr noundef nonnull align 8 dereferenceable(16) %10, i32 noundef %11)
  br i1 %12, label %13, label %14

13:                                               ; preds = %2
  br label %65

14:                                               ; preds = %2
  br label %15

15:                                               ; preds = %14
  br label %16

16:                                               ; preds = %15
  %17 = getelementptr inbounds nuw %"struct.llvm::AArch64::ExtensionSet", ptr %9, i32 0, i32 1
  %18 = load i32, ptr %4, align 4
  %19 = call noundef nonnull align 8 dereferenceable(16) ptr @_ZN4llvm6BitsetILj112EE3setEj(ptr noundef nonnull align 8 dereferenceable(16) %17, i32 noundef %18)
  %20 = getelementptr inbounds nuw %"struct.llvm::AArch64::ExtensionSet", ptr %9, i32 0, i32 0
  %21 = load i32, ptr %4, align 4
  %22 = call noundef nonnull align 8 dereferenceable(16) ptr @_ZN4llvm6BitsetILj112EE3setEj(ptr noundef nonnull align 8 dereferenceable(16) %20, i32 noundef %21)
  store ptr @_ZN4llvm7AArch6421ExtensionDependenciesE, ptr %5, align 8
  store ptr @_ZN4llvm7AArch6421ExtensionDependenciesE, ptr %6, align 8
  store ptr getelementptr inbounds (%"struct.llvm::AArch64::ExtensionDependency", ptr @_ZN4llvm7AArch6421ExtensionDependenciesE, i64 64), ptr %7, align 8
  br label %23

23:                                               ; preds = %37, %16
  %24 = load ptr, ptr %6, align 8
  %25 = load ptr, ptr %7, align 8
  %26 = icmp ne ptr %24, %25
  br i1 %26, label %27, label %40

27:                                               ; preds = %23
  %28 = load ptr, ptr %6, align 8
  call void @llvm.memcpy.p0.p0.i64(ptr align 4 %8, ptr align 4 %28, i64 8, i1 false)
  %29 = load i32, ptr %4, align 4
  %30 = getelementptr inbounds nuw %"struct.llvm::AArch64::ExtensionDependency", ptr %8, i32 0, i32 1
  %31 = load i32, ptr %30, align 4
  %32 = icmp eq i32 %29, %31
  br i1 %32, label %33, label %36

33:                                               ; preds = %27
  %34 = getelementptr inbounds nuw %"struct.llvm::AArch64::ExtensionDependency", ptr %8, i32 0, i32 0
  %35 = load i32, ptr %34, align 4
  call void @_ZN4llvm7AArch6412ExtensionSet6enableENS0_11ArchExtKindE(ptr noundef nonnull align 8 dereferenceable(40) %9, i32 noundef %35)
  br label %36

36:                                               ; preds = %33, %27
  br label %37

37:                                               ; preds = %36
  %38 = load ptr, ptr %6, align 8
  %39 = getelementptr inbounds %"struct.llvm::AArch64::ExtensionDependency", ptr %38, i32 1
  store ptr %39, ptr %6, align 8
  br label %23

40:                                               ; preds = %23
  %41 = getelementptr inbounds nuw %"struct.llvm::AArch64::ExtensionSet", ptr %9, i32 0, i32 2
  %42 = load ptr, ptr %41, align 8
  %43 = icmp ne ptr %42, null
  br i1 %43, label %44, label %65

44:                                               ; preds = %40
  %45 = load i32, ptr %4, align 4
  %46 = icmp eq i32 %45, 35
  br i1 %46, label %47, label %56

47:                                               ; preds = %44
  %48 = getelementptr inbounds nuw %"struct.llvm::AArch64::ExtensionSet", ptr %9, i32 0, i32 2
  %49 = load ptr, ptr %48, align 8
  %50 = call noundef zeroext i1 @_ZNK4llvm7AArch648ArchInfo11is_supersetERKS1_(ptr noundef nonnull align 8 dereferenceable(72) %49, ptr noundef nonnull align 8 dereferenceable(72) @_ZN4llvm7AArch648ARMV8_4AE)
  br i1 %50, label %51, label %56

51:                                               ; preds = %47
  %52 = getelementptr inbounds nuw %"struct.llvm::AArch64::ExtensionSet", ptr %9, i32 0, i32 2
  %53 = load ptr, ptr %52, align 8
  %54 = call noundef zeroext i1 @_ZNK4llvm7AArch648ArchInfo11is_supersetERKS1_(ptr noundef nonnull align 8 dereferenceable(72) %53, ptr noundef nonnull align 8 dereferenceable(72) @_ZN4llvm7AArch646ARMV9AE)
  br i1 %54, label %56, label %55

55:                                               ; preds = %51
  call void @_ZN4llvm7AArch6412ExtensionSet6enableENS0_11ArchExtKindE(ptr noundef nonnull align 8 dereferenceable(40) %9, i32 noundef 28)
  br label %56

56:                                               ; preds = %55, %51, %47, %44
  %57 = load i32, ptr %4, align 4
  %58 = icmp eq i32 %57, 15
  br i1 %58, label %59, label %64

59:                                               ; preds = %56
  %60 = getelementptr inbounds nuw %"struct.llvm::AArch64::ExtensionSet", ptr %9, i32 0, i32 2
  %61 = load ptr, ptr %60, align 8
  %62 = call noundef zeroext i1 @_ZNK4llvm7AArch648ArchInfo11is_supersetERKS1_(ptr noundef nonnull align 8 dereferenceable(72) %61, ptr noundef nonnull align 8 dereferenceable(72) @_ZN4llvm7AArch648ARMV8_4AE)
  br i1 %62, label %63, label %64

63:                                               ; preds = %59
  call void @_ZN4llvm7AArch6412ExtensionSet6enableENS0_11ArchExtKindE(ptr noundef nonnull align 8 dereferenceable(40) %9, i32 noundef 73)
  call void @_ZN4llvm7AArch6412ExtensionSet6enableENS0_11ArchExtKindE(ptr noundef nonnull align 8 dereferenceable(40) %9, i32 noundef 74)
  br label %64

64:                                               ; preds = %63, %59, %56
  br label %65

65:                                               ; preds = %64, %40, %13
  ret void
}