; Function Attrs: mustprogress nounwind uwtable
define dso_local void @_ZN4llvm7AArch6412ExtensionSet6enableENS0_11ArchExtKindE(ptr noundef nonnull align 8 dereferenceable(40) %0, i32 noundef %1) local_unnamed_addr #0 align 2 {
  %3 = getelementptr inbounds nuw i8, ptr %0, i64 32
  %4 = and i32 %1, 63
  %5 = zext nneg i32 %4 to i64
  %6 = shl nuw i64 1, %5
  %7 = lshr i32 %1, 6
  %8 = zext nneg i32 %7 to i64
  %9 = getelementptr inbounds nuw [2 x i64], ptr %0, i64 0, i64 %8
  %10 = load i64, ptr %9, align 8
  %11 = and i64 %6, %10
  %.not1216 = icmp eq i64 %11, 0
  br i1 %.not1216, label %.lr.ph, label %._crit_edge

.lr.ph:                                           ; preds = %2
  %12 = getelementptr inbounds nuw i8, ptr %0, i64 16
  br label %13

13:                                               ; preds = %.lr.ph, %tailrecurse.backedge
  %14 = phi i64 [ %10, %.lr.ph ], [ %43, %tailrecurse.backedge ]
  %15 = phi ptr [ %9, %.lr.ph ], [ %42, %tailrecurse.backedge ]
  %16 = phi i64 [ %8, %.lr.ph ], [ %41, %tailrecurse.backedge ]
  %17 = phi i64 [ %6, %.lr.ph ], [ %39, %tailrecurse.backedge ]
  %.tr1317 = phi i32 [ %1, %.lr.ph ], [ %.tr13.be, %tailrecurse.backedge ]
  %18 = getelementptr inbounds nuw [2 x i64], ptr %12, i64 0, i64 %16
  %19 = load i64, ptr %18, align 8
  %20 = or i64 %19, %17
  store i64 %20, ptr %18, align 8
  %21 = or i64 %17, %14
  store i64 %21, ptr %15, align 8
  br label %22

22:                                               ; preds = %13, %25
  %.0.idx14 = phi i64 [ 0, %13 ], [ %.0.add, %25 ]
  %.0.ptr15 = getelementptr inbounds nuw i8, ptr @_ZN4llvm7AArch6421ExtensionDependenciesE, i64 %.0.idx14
  %.sroa.2.0..sroa_idx = getelementptr inbounds nuw i8, ptr %.0.ptr15, i64 4
  %.sroa.2.0.copyload = load i32, ptr %.sroa.2.0..sroa_idx, align 4
  %23 = icmp eq i32 %.tr1317, %.sroa.2.0.copyload
  br i1 %23, label %24, label %25

24:                                               ; preds = %22
  %.sroa.0.0.copyload = load i32, ptr %.0.ptr15, align 8
  tail call void @_ZN4llvm7AArch6412ExtensionSet6enableENS0_11ArchExtKindE(ptr noundef nonnull align 8 dereferenceable(40) %0, i32 noundef %.sroa.0.0.copyload)
  br label %25

25:                                               ; preds = %22, %24
  %.0.add = add nuw nsw i64 %.0.idx14, 8
  %.not = icmp eq i64 %.0.add, 512
  br i1 %.not, label %26, label %22

26:                                               ; preds = %25
  %27 = load ptr, ptr %3, align 8
  %.not11 = icmp eq ptr %27, null
  br i1 %.not11, label %._crit_edge, label %28

28:                                               ; preds = %26
  switch i32 %.tr1317, label %._crit_edge [
    i32 35, label %29
    i32 15, label %34
  ]

29:                                               ; preds = %28
  %30 = tail call noundef zeroext i1 @_ZNK4llvm7AArch648ArchInfo11is_supersetERKS1_(ptr noundef nonnull align 8 dereferenceable(72) %27, ptr noundef nonnull align 8 dereferenceable(72) @_ZN4llvm7AArch648ARMV8_4AE)
  br i1 %30, label %31, label %._crit_edge

31:                                               ; preds = %29
  %32 = load ptr, ptr %3, align 8
  %33 = tail call noundef zeroext i1 @_ZNK4llvm7AArch648ArchInfo11is_supersetERKS1_(ptr noundef nonnull align 8 dereferenceable(72) %32, ptr noundef nonnull align 8 dereferenceable(72) @_ZN4llvm7AArch646ARMV9AE)
  br i1 %33, label %._crit_edge, label %tailrecurse.backedge

34:                                               ; preds = %28
  %35 = tail call noundef zeroext i1 @_ZNK4llvm7AArch648ArchInfo11is_supersetERKS1_(ptr noundef nonnull align 8 dereferenceable(72) %27, ptr noundef nonnull align 8 dereferenceable(72) @_ZN4llvm7AArch648ARMV8_4AE)
  br i1 %35, label %36, label %._crit_edge

36:                                               ; preds = %34
  tail call void @_ZN4llvm7AArch6412ExtensionSet6enableENS0_11ArchExtKindE(ptr noundef nonnull align 8 dereferenceable(40) %0, i32 noundef 73)
  br label %tailrecurse.backedge

tailrecurse.backedge:                             ; preds = %36, %31
  %.tr13.be = phi i32 [ 74, %36 ], [ 28, %31 ]
  %37 = and i32 %.tr13.be, 30
  %38 = zext nneg i32 %37 to i64
  %39 = shl nuw nsw i64 1, %38
  %40 = lshr i32 %.tr13.be, 6
  %41 = zext nneg i32 %40 to i64
  %42 = getelementptr inbounds nuw [2 x i64], ptr %0, i64 0, i64 %41
  %43 = load i64, ptr %42, align 8
  %44 = and i64 %39, %43
  %.not12 = icmp eq i64 %44, 0
  br i1 %.not12, label %13, label %._crit_edge

._crit_edge:                                      ; preds = %26, %tailrecurse.backedge, %34, %28, %31, %29, %2
  ret void
}